target datalayout = "e-m:e-p270:32:32-p271:32:32-p272:64:64-i64:64-i128:128-f80:128-n8:16:32:64-S128"
target triple = "x86_64-unknown-linux-gnu"

%"struct.rocksdb::PerfContext" = type <{ %"struct.rocksdb::PerfContextBase", ptr, i8, [7 x i8] }>
%"struct.rocksdb::PerfContextBase" = type { i64, i64, i64, i64, i64, i64, i64, i64, i64, i64, i64, i64, i64, i64, i64, i64, i64, i64, i64, i64, i64, i64, i64, i64, i64, i64, i64, i64, i64, i64, i64, i64, i64, i64, i64, i64, i64, i64, i64, i64, i64, i64, i64, i64, i64, i64, i64, i64, i64, i64, i64, i64, i64, i64, i64, i64, i64, i64, i64, i64, i64, i64, i64, i64, i64, i64, i64, i64, i64, i64, i64, i64, i64, i64, i64, i64, i64, i64, i64, i64, i64, i64, i64, i64, i64, i64, i64, i64, i64, i64, i64, i64, i64, i64, i64, i64, i64, i64, i64, i64, i64 }
%"class.std::__cxx11::basic_string" = type { %"struct.std::__cxx11::basic_string<char>::_Alloc_hider", i64, %union.anon }
%"struct.std::__cxx11::basic_string<char>::_Alloc_hider" = type { ptr }
%union.anon = type { i64, [8 x i8] }
%"class.rocksdb::Slice" = type { ptr, i64 }
%"class.rocksdb::UserComparatorWrapper" = type { ptr }
%"class.rocksdb::BlockBasedTableIterator" = type { %"class.rocksdb::InternalIteratorBase", %"class.std::unique_ptr", ptr, ptr, ptr, %"class.rocksdb::UserComparatorWrapper", ptr, %"class.rocksdb::DataBlockIter", ptr, i64, %"struct.rocksdb::BlockCacheLookupContext", %"class.rocksdb::BlockPrefetcher", i8, i8, i8, i8, i8, i8, i8, i8, i8, i8, i8, %"class.std::deque", i8, i8, i32 }
%"class.rocksdb::InternalIteratorBase" = type { ptr, %"class.rocksdb::Cleanable" }
%"class.rocksdb::Cleanable" = type { %"struct.rocksdb::Cleanable::Cleanup" }
%"struct.rocksdb::Cleanable::Cleanup" = type { ptr, ptr, ptr, ptr }
%"class.std::unique_ptr" = type { %"struct.std::__uniq_ptr_data" }
%"struct.std::__uniq_ptr_data" = type { %"class.std::__uniq_ptr_impl" }
%"class.std::__uniq_ptr_impl" = type { %"class.std::tuple" }
%"class.std::tuple" = type { %"struct.std::_Tuple_impl" }
%"struct.std::_Tuple_impl" = type { %"struct.std::_Head_base.1" }
%"struct.std::_Head_base.1" = type { ptr }
%"class.rocksdb::DataBlockIter" = type { %"class.rocksdb::BlockIter", ptr, i32, %"class.std::__cxx11::basic_string", %"class.std::vector.21", i32, ptr }
%"class.rocksdb::BlockIter" = type { %"class.rocksdb::InternalIteratorBase", %"class.std::unique_ptr.2", ptr, i32, i32, i32, i32, %"class.rocksdb::IterKey", %"class.rocksdb::IterKey", %"class.rocksdb::Slice", %"class.rocksdb::Status", %"class.rocksdb::Slice", i64, i64, i8, ptr, i32, i32, i8, i8, i8, ptr }
%"class.std::unique_ptr.2" = type { %"struct.std::__uniq_ptr_data.3" }
%"struct.std::__uniq_ptr_data.3" = type { %"class.std::__uniq_ptr_impl.4" }
%"class.std::__uniq_ptr_impl.4" = type { %"class.std::tuple.5" }
%"class.std::tuple.5" = type { %"struct.std::_Tuple_impl.6" }
%"struct.std::_Tuple_impl.6" = type { %"struct.std::_Head_base.9" }
%"struct.std::_Head_base.9" = type { ptr }
%"class.rocksdb::IterKey" = type { ptr, ptr, i64, i64, [39 x i8], i8 }
%"class.rocksdb::Status" = type { i8, i8, i8, i8, i8, i8, %"class.std::unique_ptr.10" }
%"class.std::unique_ptr.10" = type { %"struct.std::__uniq_ptr_data.11" }
%"struct.std::__uniq_ptr_data.11" = type { %"class.std::__uniq_ptr_impl.12" }
%"class.std::__uniq_ptr_impl.12" = type { %"class.std::tuple.13" }
%"class.std::tuple.13" = type { %"struct.std::_Tuple_impl.14" }
%"struct.std::_Tuple_impl.14" = type { %"struct.std::_Head_base.17" }
%"struct.std::_Head_base.17" = type { ptr }
%"class.std::vector.21" = type { %"struct.std::_Vector_base.22" }
%"struct.std::_Vector_base.22" = type { %"struct.std::_Vector_base<rocksdb::DataBlockIter::CachedPrevEntry, std::allocator<rocksdb::DataBlockIter::CachedPrevEntry>>::_Vector_impl" }
%"struct.std::_Vector_base<rocksdb::DataBlockIter::CachedPrevEntry, std::allocator<rocksdb::DataBlockIter::CachedPrevEntry>>::_Vector_impl" = type { %"struct.std::_Vector_base<rocksdb::DataBlockIter::CachedPrevEntry, std::allocator<rocksdb::DataBlockIter::CachedPrevEntry>>::_Vector_impl_data" }
%"struct.std::_Vector_base<rocksdb::DataBlockIter::CachedPrevEntry, std::allocator<rocksdb::DataBlockIter::CachedPrevEntry>>::_Vector_impl_data" = type { ptr, ptr, ptr }
%"struct.rocksdb::BlockCacheLookupContext" = type <{ i8, i8, i8, i8, [4 x i8], i64, %"class.std::__cxx11::basic_string", i64, i64, %"class.std::__cxx11::basic_string", i8, [7 x i8] }>
%"class.rocksdb::BlockPrefetcher" = type { i64, i64, i64, i64, i64, i64, i64, %"class.std::unique_ptr.26" }
%"class.std::unique_ptr.26" = type { %"struct.std::__uniq_ptr_data.27" }
%"struct.std::__uniq_ptr_data.27" = type { %"class.std::__uniq_ptr_impl.28" }
%"class.std::__uniq_ptr_impl.28" = type { %"class.std::tuple.29" }
%"class.std::tuple.29" = type { %"struct.std::_Tuple_impl.30" }
%"struct.std::_Tuple_impl.30" = type { %"struct.std::_Head_base.33" }
%"struct.std::_Head_base.33" = type { ptr }
%"class.std::deque" = type { %"class.std::_Deque_base" }
%"class.std::_Deque_base" = type { %"struct.std::_Deque_base<rocksdb::BlockBasedTableIterator::BlockHandleInfo, std::allocator<rocksdb::BlockBasedTableIterator::BlockHandleInfo>>::_Deque_impl" }
%"struct.std::_Deque_base<rocksdb::BlockBasedTableIterator::BlockHandleInfo, std::allocator<rocksdb::BlockBasedTableIterator::BlockHandleInfo>>::_Deque_impl" = type { %"struct.std::_Deque_base<rocksdb::BlockBasedTableIterator::BlockHandleInfo, std::allocator<rocksdb::BlockBasedTableIterator::BlockHandleInfo>>::_Deque_impl_data" }
%"struct.std::_Deque_base<rocksdb::BlockBasedTableIterator::BlockHandleInfo, std::allocator<rocksdb::BlockBasedTableIterator::BlockHandleInfo>>::_Deque_impl_data" = type { ptr, i64, %"struct.std::_Deque_iterator", %"struct.std::_Deque_iterator" }
%"struct.std::_Deque_iterator" = type { ptr, ptr, ptr, ptr }
%"struct.rocksdb::ReadOptions" = type <{ ptr, ptr, ptr, %"class.std::chrono::duration", %"class.std::chrono::duration", i32, i32, i64, %"class.std::optional", i8, i8, i8, i8, i8, [3 x i8], i64, i64, ptr, ptr, i8, i8, i8, i8, i8, i8, i8, i8, %"class.std::function", i8, i8, [6 x i8] }>
%"class.std::chrono::duration" = type { i64 }
%"class.std::optional" = type { %"struct.std::_Optional_base" }
%"struct.std::_Optional_base" = type { %"struct.std::_Optional_payload" }
%"struct.std::_Optional_payload" = type { %"struct.std::_Optional_payload_base.base", [7 x i8] }
%"struct.std::_Optional_payload_base.base" = type <{ %"union.std::_Optional_payload_base<unsigned long>::_Storage", i8 }>
%"union.std::_Optional_payload_base<unsigned long>::_Storage" = type { i64 }
%"class.std::function" = type { %"class.std::_Function_base", ptr }
%"class.std::_Function_base" = type { %"union.std::_Any_data", ptr }
%"union.std::_Any_data" = type { %"union.std::_Nocopy_types" }
%"union.std::_Nocopy_types" = type { { i64, i64 } }

@_ZN7rocksdb10perf_levelE = external thread_local global i8, align 1
@_ZN7rocksdb12perf_contextE = external thread_local global %"struct.rocksdb::PerfContext", align 8

; Function Attrs: uwtable
define linkonce_odr hidden noundef ptr @_ZTWN7rocksdb12perf_contextE() #6 comdat {
  br i1 icmp ne (ptr @_ZTHN7rocksdb12perf_contextE, ptr null), label %1, label %2

1:                                                ; preds = %0
  call void @_ZTHN7rocksdb12perf_contextE()
  br label %2

2:                                                ; preds = %1, %0
  %3 = call align 8 ptr @llvm.threadlocal.address.p0(ptr align 8 @_ZN7rocksdb12perf_contextE)
  ret ptr %3
}

; Function Attrs: uwtable
define linkonce_odr hidden noundef ptr @_ZTWN7rocksdb10perf_levelE() #6 comdat {
  br i1 icmp ne (ptr @_ZTHN7rocksdb10perf_levelE, ptr null), label %1, label %2

1:                                                ; preds = %0
  call void @_ZTHN7rocksdb10perf_levelE()
  br label %2

2:                                                ; preds = %1, %0
  %3 = call align 1 ptr @llvm.threadlocal.address.p0(ptr align 1 @_ZN7rocksdb10perf_levelE)
  ret ptr %3
}

; Function Attrs: mustprogress uwtable
define linkonce_odr noundef i32 @_ZNK7rocksdb21UserComparatorWrapper23CompareWithoutTimestampERKNS_5SliceEbS3_b(ptr noundef nonnull align 8 dereferenceable(8) %this, ptr noundef nonnull align 8 dereferenceable(16) %a, i1 noundef zeroext %a_has_ts, ptr noundef nonnull align 8 dereferenceable(16) %b, i1 noundef zeroext %b_has_ts) #0 comdat align 2 {
entry:
  %this.addr = alloca ptr, align 8
  %a.addr = alloca ptr, align 8
  %a_has_ts.addr = alloca i8, align 1
  %b.addr = alloca ptr, align 8
  %b_has_ts.addr = alloca i8, align 1
  store ptr %this, ptr %this.addr, align 8
  store ptr %a, ptr %a.addr, align 8
  %frombool = zext i1 %a_has_ts to i8
  store i8 %frombool, ptr %a_has_ts.addr, align 1
  store ptr %b, ptr %b.addr, align 8
  %frombool1 = zext i1 %b_has_ts to i8
  store i8 %frombool1, ptr %b_has_ts.addr, align 1
  %this2 = load ptr, ptr %this.addr, align 8
  %0 = call ptr @_ZTWN7rocksdb10perf_levelE()
  %1 = load i8, ptr %0, align 1
  %conv = zext i8 %1 to i32
  %cmp = icmp sge i32 %conv, 2
  br i1 %cmp, label %if.then, label %if.end

if.then:                                          ; preds = %entry
  %2 = call ptr @_ZTWN7rocksdb12perf_contextE()
  %user_key_comparison_count = getelementptr inbounds %"struct.rocksdb::PerfContextBase", ptr %2, i32 0, i32 0
  %3 = load i64, ptr %user_key_comparison_count, align 8
  %add = add i64 %3, 1
  store i64 %add, ptr %user_key_comparison_count, align 8
  br label %if.end

if.end:                                           ; preds = %if.then, %entry
  %user_comparator_ = getelementptr inbounds %"class.rocksdb::UserComparatorWrapper", ptr %this2, i32 0, i32 0
  %4 = load ptr, ptr %user_comparator_, align 8
  %5 = load ptr, ptr %a.addr, align 8
  %6 = load i8, ptr %a_has_ts.addr, align 1
  %tobool = trunc i8 %6 to i1
  %7 = load ptr, ptr %b.addr, align 8
  %8 = load i8, ptr %b_has_ts.addr, align 1
  %tobool3 = trunc i8 %8 to i1
  %vtable = load ptr, ptr %4, align 8
  %vfn = getelementptr inbounds ptr, ptr %vtable, i64 26
  %9 = load ptr, ptr %vfn, align 8
  %call = call noundef i32 %9(ptr noundef nonnull align 8 dereferenceable(48) %4, ptr noundef nonnull align 8 dereferenceable(16) %5, i1 noundef zeroext %tobool, ptr noundef nonnull align 8 dereferenceable(16) %7, i1 noundef zeroext %tobool3)
  ret i32 %call
}

; Function Attrs: mustprogress nounwind uwtable
define linkonce_odr noundef zeroext i1 @_ZNK7rocksdb9BlockIterINS_5SliceEE5ValidEv(ptr noundef nonnull align 8 dereferenceable(320) %this) unnamed_addr #1 comdat align 2 {
entry:
  %this.addr = alloca ptr, align 8
  store ptr %this, ptr %this.addr, align 8
  %this1 = load ptr, ptr %this.addr, align 8
  %current_ = getelementptr inbounds %"class.rocksdb::BlockIter", ptr %this1, i32 0, i32 6
  %0 = load i32, ptr %current_, align 4
  %restarts_ = getelementptr inbounds %"class.rocksdb::BlockIter", ptr %this1, i32 0, i32 5
  %1 = load i32, ptr %restarts_, align 8
  %cmp = icmp ult i32 %0, %1
  ret i1 %cmp
}

; Function Attrs: mustprogress uwtable
define void @_ZN7rocksdb23BlockBasedTableIterator15CheckOutOfBoundEv(ptr noundef nonnull align 8 dereferenceable(784) %this) #0 align 2 {
entry:
  %this.addr = alloca ptr, align 8
  %ref.tmp = alloca %"class.rocksdb::Slice", align 8
  store ptr %this, ptr %this.addr, align 8
  %this1 = load ptr, ptr %this.addr, align 8
  %read_options_ = getelementptr inbounds %"class.rocksdb::BlockBasedTableIterator", ptr %this1, i32 0, i32 3
  %0 = load ptr, ptr %read_options_, align 8
  %iterate_upper_bound = getelementptr inbounds %"struct.rocksdb::ReadOptions", ptr %0, i32 0, i32 18
  %1 = load ptr, ptr %iterate_upper_bound, align 8
  %cmp = icmp ne ptr %1, null
  br i1 %cmp, label %land.lhs.true, label %if.end

land.lhs.true:                                    ; preds = %entry
  %block_upper_bound_check_ = getelementptr inbounds %"class.rocksdb::BlockBasedTableIterator", ptr %this1, i32 0, i32 15
  %2 = load i8, ptr %block_upper_bound_check_, align 1
  %cmp2 = icmp ne i8 %2, 1
  br i1 %cmp2, label %land.lhs.true3, label %if.end

land.lhs.true3:                                   ; preds = %land.lhs.true
  %vtable = load ptr, ptr %this1, align 8
  %vfn = getelementptr inbounds ptr, ptr %vtable, i64 3
  %3 = load ptr, ptr %vfn, align 8
  %call = call noundef zeroext i1 %3(ptr noundef nonnull align 8 dereferenceable(784) %this1)
  br i1 %call, label %if.then, label %if.end

if.then:                                          ; preds = %land.lhs.true3
  %user_comparator_ = getelementptr inbounds %"class.rocksdb::BlockBasedTableIterator", ptr %this1, i32 0, i32 5
  %read_options_4 = getelementptr inbounds %"class.rocksdb::BlockBasedTableIterator", ptr %this1, i32 0, i32 3
  %4 = load ptr, ptr %read_options_4, align 8
  %iterate_upper_bound5 = getelementptr inbounds %"struct.rocksdb::ReadOptions", ptr %4, i32 0, i32 18
  %5 = load ptr, ptr %iterate_upper_bound5, align 8
  %vtable6 = load ptr, ptr %this1, align 8
  %vfn7 = getelementptr inbounds ptr, ptr %vtable6, i64 12
  %6 = load ptr, ptr %vfn7, align 8
  %call8 = call { ptr, i64 } %6(ptr noundef nonnull align 8 dereferenceable(784) %this1)
  %7 = getelementptr inbounds { ptr, i64 }, ptr %ref.tmp, i32 0, i32 0
  %8 = extractvalue { ptr, i64 } %call8, 0
  store ptr %8, ptr %7, align 8
  %9 = getelementptr inbounds { ptr, i64 }, ptr %ref.tmp, i32 0, i32 1
  %10 = extractvalue { ptr, i64 } %call8, 1
  store i64 %10, ptr %9, align 8
  %call9 = call noundef i32 @_ZNK7rocksdb21UserComparatorWrapper23CompareWithoutTimestampERKNS_5SliceEbS3_b(ptr noundef nonnull align 8 dereferenceable(8) %user_comparator_, ptr noundef nonnull align 8 dereferenceable(16) %5, i1 noundef zeroext false, ptr noundef nonnull align 8 dereferenceable(16) %ref.tmp, i1 noundef zeroext true)
  %cmp10 = icmp sle i32 %call9, 0
  %is_out_of_bound_ = getelementptr inbounds %"class.rocksdb::BlockBasedTableIterator", ptr %this1, i32 0, i32 14
  %frombool = zext i1 %cmp10 to i8
  store i8 %frombool, ptr %is_out_of_bound_, align 2
  br label %if.end

if.end:                                           ; preds = %if.then, %land.lhs.true3, %land.lhs.true, %entry
  ret void
}

; Function Attrs: mustprogress uwtable
define void @_ZN7rocksdb23BlockBasedTableIterator14FindKeyForwardEv(ptr noundef nonnull align 8 dereferenceable(784) %this) #0 align 2 {
entry:
  %this.addr = alloca ptr, align 8
  store ptr %this, ptr %this.addr, align 8
  %this1 = load ptr, ptr %this.addr, align 8
  %block_iter_ = getelementptr inbounds %"class.rocksdb::BlockBasedTableIterator", ptr %this1, i32 0, i32 7
  %call = call noundef zeroext i1 @_ZNK7rocksdb9BlockIterINS_5SliceEE5ValidEv(ptr noundef nonnull align 8 dereferenceable(320) %block_iter_)
  br i1 %call, label %if.else, label %if.then

if.then:                                          ; preds = %entry
  call void @_ZN7rocksdb23BlockBasedTableIterator16FindBlockForwardEv(ptr noundef nonnull align 8 dereferenceable(784) %this1)
  br label %if.end

if.else:                                          ; preds = %entry
  br label %if.end

if.end:                                           ; preds = %if.else, %if.then
  ret void
}

; Function Attrs: mustprogress uwtable
define linkonce_odr void @_ZN7rocksdb9BlockIterINS_5SliceEE11SeekToFirstEv(ptr noundef nonnull align 8 dereferenceable(320) %this) unnamed_addr #0 comdat align 2 {
entry:
  %this.addr = alloca ptr, align 8
  store ptr %this, ptr %this.addr, align 8
  %this1 = load ptr, ptr %this.addr, align 8
  %vtable = load ptr, ptr %this1, align 8
  %vfn = getelementptr inbounds ptr, ptr %vtable, i64 26
  %0 = load ptr, ptr %vfn, align 8
  call void %0(ptr noundef nonnull align 8 dereferenceable(320) %this1)
  call void @_ZN7rocksdb9BlockIterINS_5SliceEE9UpdateKeyEv(ptr noundef nonnull align 8 dereferenceable(320) %this1)
  ret void
}

; Function Attrs: mustprogress uwtable
define linkonce_odr void @_ZN7rocksdb9BlockIterINS_5SliceEE4SeekERKS1_(ptr noundef nonnull align 8 dereferenceable(320) %this, ptr noundef nonnull align 8 dereferenceable(16) %target) unnamed_addr #0 comdat align 2 {
entry:
  %this.addr = alloca ptr, align 8
  %target.addr = alloca ptr, align 8
  store ptr %this, ptr %this.addr, align 8
  store ptr %target, ptr %target.addr, align 8
  %this1 = load ptr, ptr %this.addr, align 8
  %0 = load ptr, ptr %target.addr, align 8
  %vtable = load ptr, ptr %this1, align 8
  %vfn = getelementptr inbounds ptr, ptr %vtable, i64 28
  %1 = load ptr, ptr %vfn, align 8
  call void %1(ptr noundef nonnull align 8 dereferenceable(320) %this1, ptr noundef nonnull align 8 dereferenceable(16) %0)
  call void @_ZN7rocksdb9BlockIterINS_5SliceEE9UpdateKeyEv(ptr noundef nonnull align 8 dereferenceable(320) %this1)
  ret void
}

; Function Attrs: mustprogress uwtable
define void @_ZN7rocksdb23BlockBasedTableIterator14SeekSecondPassEPKNS_5SliceE(ptr noundef nonnull align 8 dereferenceable(784) %this, ptr noundef %target) #0 align 2 {
entry:
  %this.addr = alloca ptr, align 8
  %target.addr = alloca ptr, align 8
  store ptr %this, ptr %this.addr, align 8
  store ptr %target, ptr %target.addr, align 8
  %this1 = load ptr, ptr %this.addr, align 8
  call void @_ZN7rocksdb23BlockBasedTableIterator18AsyncInitDataBlockEb(ptr noundef nonnull align 8 dereferenceable(784) %this1, i1 noundef zeroext false)
  %0 = load ptr, ptr %target.addr, align 8
  %tobool = icmp ne ptr %0, null
  br i1 %tobool, label %if.then, label %if.else

if.then:                                          ; preds = %entry
  %block_iter_ = getelementptr inbounds %"class.rocksdb::BlockBasedTableIterator", ptr %this1, i32 0, i32 7
  %1 = load ptr, ptr %target.addr, align 8
  call void @_ZN7rocksdb9BlockIterINS_5SliceEE4SeekERKS1_(ptr noundef nonnull align 8 dereferenceable(320) %block_iter_, ptr noundef nonnull align 8 dereferenceable(16) %1)
  br label %if.end

if.else:                                          ; preds = %entry
  %block_iter_2 = getelementptr inbounds %"class.rocksdb::BlockBasedTableIterator", ptr %this1, i32 0, i32 7
  call void @_ZN7rocksdb9BlockIterINS_5SliceEE11SeekToFirstEv(ptr noundef nonnull align 8 dereferenceable(320) %block_iter_2)
  br label %if.end

if.end:                                           ; preds = %if.else, %if.then
  call void @_ZN7rocksdb23BlockBasedTableIterator14FindKeyForwardEv(ptr noundef nonnull align 8 dereferenceable(784) %this1)
  call void @_ZN7rocksdb23BlockBasedTableIterator15CheckOutOfBoundEv(ptr noundef nonnull align 8 dereferenceable(784) %this1)
  %2 = load ptr, ptr %target.addr, align 8
  %tobool3 = icmp ne ptr %2, null
  br i1 %tobool3, label %if.then4, label %if.end5

if.then4:                                         ; preds = %if.end
  br label %if.end5

if.end5:                                          ; preds = %if.then4, %if.end
  ret void
}