; Function Attrs: uwtable
define void @_ZN7rocksdb23BlockBasedTableIterator14SeekSecondPassEPKNS_5SliceE(ptr noundef nonnull align 8 dereferenceable(784) %this, ptr noundef %target) local_unnamed_addr #0 align 2 {
entry:
  %ref.tmp.i = alloca %"class.rocksdb::Slice", align 8
  tail call void @_ZN7rocksdb23BlockBasedTableIterator18AsyncInitDataBlockEb(ptr noundef nonnull align 8 dereferenceable(784) %this, i1 noundef zeroext false)
  %tobool.not = icmp eq ptr %target, null
  %block_iter_2 = getelementptr inbounds i8, ptr %this, i64 88
  %vtable.i3 = load ptr, ptr %block_iter_2, align 8
  br i1 %tobool.not, label %if.else, label %if.then

if.then:                                          ; preds = %entry
  %vfn.i = getelementptr inbounds i8, ptr %vtable.i3, i64 224
  %0 = load ptr, ptr %vfn.i, align 8
  tail call void %0(ptr noundef nonnull align 8 dereferenceable(320) %block_iter_2, ptr noundef nonnull align 8 dereferenceable(16) %target)
  br label %if.end

if.else:                                          ; preds = %entry
  %vfn.i4 = getelementptr inbounds i8, ptr %vtable.i3, i64 208
  %1 = load ptr, ptr %vfn.i4, align 8
  tail call void %1(ptr noundef nonnull align 8 dereferenceable(320) %block_iter_2)
  br label %if.end

if.end:                                           ; preds = %if.else, %if.then
  tail call void @_ZN7rocksdb9BlockIterINS_5SliceEE9UpdateKeyEv(ptr noundef nonnull align 8 dereferenceable(320) %block_iter_2)
  %current_.i.i = getelementptr inbounds i8, ptr %this, i64 156
  %2 = load i32, ptr %current_.i.i, align 4
  %restarts_.i.i = getelementptr inbounds i8, ptr %this, i64 152
  %3 = load i32, ptr %restarts_.i.i, align 8
  %cmp.i.i = icmp ult i32 %2, %3
  br i1 %cmp.i.i, label %_ZN7rocksdb23BlockBasedTableIterator14FindKeyForwardEv.exit, label %if.then.i

if.then.i:                                        ; preds = %if.end
  tail call void @_ZN7rocksdb23BlockBasedTableIterator16FindBlockForwardEv(ptr noundef nonnull align 8 dereferenceable(784) %this)
  br label %_ZN7rocksdb23BlockBasedTableIterator14FindKeyForwardEv.exit

_ZN7rocksdb23BlockBasedTableIterator14FindKeyForwardEv.exit: ; preds = %if.end, %if.then.i
  call void @llvm.lifetime.start.p0(i64 16, ptr nonnull %ref.tmp.i)
  %read_options_.i = getelementptr inbounds i8, ptr %this, i64 56
  %4 = load ptr, ptr %read_options_.i, align 8
  %iterate_upper_bound.i = getelementptr inbounds i8, ptr %4, i64 104
  %5 = load ptr, ptr %iterate_upper_bound.i, align 8
  %cmp.not.i = icmp eq ptr %5, null
  %block_upper_bound_check_.i = getelementptr inbounds i8, ptr %this, i64 683
  %6 = load i8, ptr %block_upper_bound_check_.i, align 1
  %cmp2.not.i = icmp eq i8 %6, 1
  %or.cond.i = select i1 %cmp.not.i, i1 true, i1 %cmp2.not.i
  br i1 %or.cond.i, label %_ZN7rocksdb23BlockBasedTableIterator15CheckOutOfBoundEv.exit, label %land.lhs.true3.i

land.lhs.true3.i:                                 ; preds = %_ZN7rocksdb23BlockBasedTableIterator14FindKeyForwardEv.exit
  %vtable.i5 = load ptr, ptr %this, align 8
  %vfn.i6 = getelementptr inbounds i8, ptr %vtable.i5, i64 24
  %7 = load ptr, ptr %vfn.i6, align 8
  %call.i = tail call noundef zeroext i1 %7(ptr noundef nonnull align 8 dereferenceable(784) %this)
  br i1 %call.i, label %if.then.i7, label %_ZN7rocksdb23BlockBasedTableIterator15CheckOutOfBoundEv.exit

if.then.i7:                                       ; preds = %land.lhs.true3.i
  %user_comparator_.i = getelementptr inbounds i8, ptr %this, i64 72
  %8 = load ptr, ptr %read_options_.i, align 8
  %iterate_upper_bound5.i = getelementptr inbounds i8, ptr %8, i64 104
  %9 = load ptr, ptr %iterate_upper_bound5.i, align 8
  %vtable6.i = load ptr, ptr %this, align 8
  %vfn7.i = getelementptr inbounds i8, ptr %vtable6.i, i64 96
  %10 = load ptr, ptr %vfn7.i, align 8
  %call8.i = tail call { ptr, i64 } %10(ptr noundef nonnull align 8 dereferenceable(784) %this)
  %11 = extractvalue { ptr, i64 } %call8.i, 0
  store ptr %11, ptr %ref.tmp.i, align 8
  %12 = getelementptr inbounds i8, ptr %ref.tmp.i, i64 8
  %13 = extractvalue { ptr, i64 } %call8.i, 1
  store i64 %13, ptr %12, align 8
  br i1 icmp ne (ptr @_ZTHN7rocksdb10perf_levelE, ptr null), label %14, label %_ZTWN7rocksdb10perf_levelE.exit.i.i

14:                                               ; preds = %if.then.i7
  tail call void @_ZTHN7rocksdb10perf_levelE()
  br label %_ZTWN7rocksdb10perf_levelE.exit.i.i

_ZTWN7rocksdb10perf_levelE.exit.i.i:              ; preds = %14, %if.then.i7
  %15 = tail call noundef align 1 ptr @llvm.threadlocal.address.p0(ptr align 1 @_ZN7rocksdb10perf_levelE)
  %16 = load i8, ptr %15, align 1
  %cmp.i.i8 = icmp ugt i8 %16, 1
  br i1 %cmp.i.i8, label %if.then.i.i, label %_ZNK7rocksdb21UserComparatorWrapper23CompareWithoutTimestampERKNS_5SliceEbS3_b.exit.i

if.then.i.i:                                      ; preds = %_ZTWN7rocksdb10perf_levelE.exit.i.i
  br i1 icmp ne (ptr @_ZTHN7rocksdb12perf_contextE, ptr null), label %17, label %_ZTWN7rocksdb12perf_contextE.exit.i.i

17:                                               ; preds = %if.then.i.i
  tail call void @_ZTHN7rocksdb12perf_contextE()
  br label %_ZTWN7rocksdb12perf_contextE.exit.i.i

_ZTWN7rocksdb12perf_contextE.exit.i.i:            ; preds = %17, %if.then.i.i
  %18 = tail call noundef align 8 ptr @llvm.threadlocal.address.p0(ptr align 8 @_ZN7rocksdb12perf_contextE)
  %19 = load i64, ptr %18, align 8
  %add.i.i = add i64 %19, 1
  store i64 %add.i.i, ptr %18, align 8
  br label %_ZNK7rocksdb21UserComparatorWrapper23CompareWithoutTimestampERKNS_5SliceEbS3_b.exit.i

_ZNK7rocksdb21UserComparatorWrapper23CompareWithoutTimestampERKNS_5SliceEbS3_b.exit.i: ; preds = %_ZTWN7rocksdb12perf_contextE.exit.i.i, %_ZTWN7rocksdb10perf_levelE.exit.i.i
  %20 = load ptr, ptr %user_comparator_.i, align 8
  %vtable.i.i = load ptr, ptr %20, align 8
  %vfn.i.i = getelementptr inbounds i8, ptr %vtable.i.i, i64 208
  %21 = load ptr, ptr %vfn.i.i, align 8
  %call.i.i = call noundef i32 %21(ptr noundef nonnull align 8 dereferenceable(48) %20, ptr noundef nonnull align 8 dereferenceable(16) %9, i1 noundef zeroext false, ptr noundef nonnull align 8 dereferenceable(16) %ref.tmp.i, i1 noundef zeroext true)
  %cmp10.i = icmp slt i32 %call.i.i, 1
  %is_out_of_bound_.i = getelementptr inbounds i8, ptr %this, i64 682
  %frombool.i = zext i1 %cmp10.i to i8
  store i8 %frombool.i, ptr %is_out_of_bound_.i, align 2
  br label %_ZN7rocksdb23BlockBasedTableIterator15CheckOutOfBoundEv.exit

_ZN7rocksdb23BlockBasedTableIterator15CheckOutOfBoundEv.exit: ; preds = %_ZN7rocksdb23BlockBasedTableIterator14FindKeyForwardEv.exit, %land.lhs.true3.i, %_ZNK7rocksdb21UserComparatorWrapper23CompareWithoutTimestampERKNS_5SliceEbS3_b.exit.i
  call void @llvm.lifetime.end.p0(i64 16, ptr nonnull %ref.tmp.i)
  ret void
}